target datalayout = "e-m:e-p270:32:32-p271:32:32-p272:64:64-i64:64-i128:128-f80:128-n8:16:32:64-S128"
target triple = "x86_64-unknown-linux-gnu"

%"struct.node::AssertionInfo" = type { ptr, ptr, ptr }
%"class.v8::IndirectHandleBase" = type { ptr }
%"class.v8::Local" = type { %"class.v8::LocalBase" }
%"class.v8::LocalBase" = type { %"class.v8::IndirectHandleBase" }
%"class.v8::Local.299" = type { %"class.v8::LocalBase.300" }
%"class.v8::LocalBase.300" = type { %"class.v8::IndirectHandleBase" }
%"class.v8::LocalBase.350" = type { %"class.v8::IndirectHandleBase" }
%"class.v8::Local.349" = type { %"class.v8::LocalBase.350" }
%"class.v8::FunctionCallbackInfo" = type <{ ptr, ptr, i32, [4 x i8] }>

@_ZZN4node2fs16NewFSReqCallbackERKN2v820FunctionCallbackInfoINS1_5ValueEEEE4args = internal constant %"struct.node::AssertionInfo" { ptr @.str.40, ptr @.str.3, ptr @.str.41 }, align 8

; Function Attrs: mustprogress nounwind uwtable
define linkonce_odr dso_local void @_ZN4node2fs13FSReqCallbackC2EPNS0_11BindingDataEN2v85LocalINS4_6ObjectEEEb(ptr noundef nonnull align 8 dereferenceable(648) %this, ptr noundef %binding_data, ptr %req.coerce, i1 noundef zeroext %use_bigint) unnamed_addr #4 comdat align 2 {
entry:
  %req = alloca %"class.v8::Local", align 8
  %this.addr = alloca ptr, align 8
  %binding_data.addr = alloca ptr, align 8
  %use_bigint.addr = alloca i8, align 1
  %agg.tmp = alloca %"class.v8::Local", align 8
  %coerce.dive = getelementptr inbounds %"class.v8::Local", ptr %req, i32 0, i32 0
  %coerce.dive1 = getelementptr inbounds %"class.v8::LocalBase", ptr %coerce.dive, i32 0, i32 0
  %coerce.dive2 = getelementptr inbounds %"class.v8::IndirectHandleBase", ptr %coerce.dive1, i32 0, i32 0
  store ptr %req.coerce, ptr %coerce.dive2, align 8
  store ptr %this, ptr %this.addr, align 8
  store ptr %binding_data, ptr %binding_data.addr, align 8
  %frombool = zext i1 %use_bigint to i8
  store i8 %frombool, ptr %use_bigint.addr, align 1
  %this3 = load ptr, ptr %this.addr, align 8
  %0 = load ptr, ptr %binding_data.addr, align 8
  call void @llvm.memcpy.p0.p0.i64(ptr align 8 %agg.tmp, ptr align 8 %req, i64 8, i1 false)
  %1 = load i8, ptr %use_bigint.addr, align 1
  %tobool = trunc i8 %1 to i1
  %coerce.dive4 = getelementptr inbounds %"class.v8::Local", ptr %agg.tmp, i32 0, i32 0
  %coerce.dive5 = getelementptr inbounds %"class.v8::LocalBase", ptr %coerce.dive4, i32 0, i32 0
  %coerce.dive6 = getelementptr inbounds %"class.v8::IndirectHandleBase", ptr %coerce.dive5, i32 0, i32 0
  %2 = load ptr, ptr %coerce.dive6, align 8
  call void @_ZN4node2fs9FSReqBaseC2EPNS0_11BindingDataEN2v85LocalINS4_6ObjectEEENS_9AsyncWrap12ProviderTypeEb(ptr noundef nonnull align 8 dereferenceable(648) %this3, ptr noundef %0, ptr %2, i32 noundef 8, i1 noundef zeroext %tobool)
  store ptr getelementptr inbounds ({ [27 x ptr], [6 x ptr] }, ptr @_ZTVN4node2fs13FSReqCallbackE, i32 0, i32 0, i32 2), ptr %this3, align 8
  %add.ptr = getelementptr inbounds i8, ptr %this3, i64 56
  store ptr getelementptr inbounds ({ [27 x ptr], [6 x ptr] }, ptr @_ZTVN4node2fs13FSReqCallbackE, i32 0, i32 1, i32 2), ptr %add.ptr, align 8
  ret void
}

; Function Attrs: mustprogress nounwind uwtable
define dso_local void @_ZN4node2fs16NewFSReqCallbackERKN2v820FunctionCallbackInfoINS1_5ValueEEE(ptr noundef nonnull align 8 dereferenceable(20) %args) #4 {
entry:
  %this.addr.i119 = alloca ptr, align 8
  %other.addr.i120 = alloca ptr, align 8
  %this.addr.i.i.i111 = alloca ptr, align 8
  %location.addr.i.i.i112 = alloca ptr, align 8
  %this.addr.i.i113 = alloca ptr, align 8
  %location.addr.i.i114 = alloca ptr, align 8
  %retval.i115 = alloca %"class.v8::LocalBase", align 8
  %slot.addr.i116 = alloca ptr, align 8
  %this.addr.i.i105 = alloca ptr, align 8
  %other.addr.i.i106 = alloca ptr, align 8
  %retval.i107 = alloca %"class.v8::Local", align 8
  %slot.addr.i108 = alloca ptr, align 8
  %ref.tmp.i109 = alloca %"class.v8::LocalBase", align 8
  %this.addr.i.i9.i = alloca ptr, align 8
  %location.addr.i.i.i = alloca ptr, align 8
  %this.addr.i.i98 = alloca ptr, align 8
  %location.addr.i.i99 = alloca ptr, align 8
  %retval.i7.i = alloca %"class.v8::LocalBase.300", align 8
  %slot.addr.i8.i = alloca ptr, align 8
  %this.addr.i.i.i = alloca ptr, align 8
  %other.addr.i.i.i = alloca ptr, align 8
  %retval.i.i = alloca %"class.v8::Local.299", align 8
  %slot.addr.i.i = alloca ptr, align 8
  %ref.tmp.i.i = alloca %"class.v8::LocalBase.300", align 8
  %retval.i100 = alloca %"class.v8::Local.299", align 8
  %this.addr.i101 = alloca ptr, align 8
  %slot.addr.i97 = alloca ptr, align 8
  %slot.addr.i96 = alloca ptr, align 8
  %this.addr.i.i91 = alloca ptr, align 8
  %this.addr.i92 = alloca ptr, align 8
  %this.addr.i.i87 = alloca ptr, align 8
  %this.addr.i88 = alloca ptr, align 8
  %this.addr.i.i81 = alloca ptr, align 8
  %location.addr.i.i82 = alloca ptr, align 8
  %this.addr.i83 = alloca ptr, align 8
  %location.addr.i84 = alloca ptr, align 8
  %retval.i79 = alloca %"class.v8::LocalBase.300", align 8
  %slot.addr.i80 = alloca ptr, align 8
  %this.addr.i.i73 = alloca ptr, align 8
  %other.addr.i.i = alloca ptr, align 8
  %retval.i74 = alloca %"class.v8::Local.299", align 8
  %slot.addr.i75 = alloca ptr, align 8
  %ref.tmp.i76 = alloca %"class.v8::LocalBase.300", align 8
  %value.addr.i71 = alloca i64, align 8
  %shift_bits.i = alloca i32, align 4
  %heap_object_ptr.addr.i.i65 = alloca i64, align 8
  %offset.addr.i.i66 = alloca i32, align 4
  %addr.i.i67 = alloca i64, align 8
  %heap_object_ptr.addr.i = alloca i64, align 8
  %offset.addr.i = alloca i32, align 4
  %value.addr.i63 = alloca i64, align 8
  %obj.addr.i = alloca i64, align 8
  %value.addr.i60 = alloca i64, align 8
  %value.addr.i = alloca ptr, align 8
  %heap_object_ptr.addr.i8.i = alloca i64, align 8
  %offset.addr.i9.i = alloca i32, align 4
  %addr.i.i = alloca i64, align 8
  %heap_object_ptr.addr.i.i.i = alloca i64, align 8
  %offset.addr.i.i.i = alloca i32, align 4
  %addr.i.i.i = alloca i64, align 8
  %heap_object_ptr.addr.i.i = alloca i64, align 8
  %offset.addr.i.i = alloca i32, align 4
  %obj.addr.i.i = alloca i64, align 8
  %map.i.i = alloca i64, align 8
  %retval.i53 = alloca i1, align 1
  %this.addr.i54 = alloca ptr, align 8
  %obj.i = alloca i64, align 8
  %this.addr.i.i = alloca ptr, align 8
  %location.addr.i.i = alloca ptr, align 8
  %this.addr.i51 = alloca ptr, align 8
  %location.addr.i = alloca ptr, align 8
  %this.addr.i49 = alloca ptr, align 8
  %other.addr.i = alloca ptr, align 8
  %retval.i47 = alloca %"class.v8::LocalBase.350", align 8
  %slot.addr.i48 = alloca ptr, align 8
  %retval.i44 = alloca %"class.v8::Local.349", align 8
  %slot.addr.i = alloca ptr, align 8
  %ref.tmp.i45 = alloca %"class.v8::LocalBase.350", align 8
  %isolate.addr.i43 = alloca ptr, align 8
  %index.addr.i = alloca i32, align 4
  %addr.i = alloca i64, align 8
  %isolate.addr.i42 = alloca ptr, align 8
  %this.addr.i40 = alloca ptr, align 8
  %this.addr.i37 = alloca ptr, align 8
  %that.i = alloca %"class.v8::Local.349", align 8
  %this.addr.i36 = alloca ptr, align 8
  %retval.i34 = alloca %"class.v8::Local.349", align 8
  %isolate.addr.i = alloca ptr, align 8
  %slot.i = alloca ptr, align 8
  %retval.i28 = alloca %"class.v8::Local", align 8
  %this.addr.i29 = alloca ptr, align 8
  %this.addr.i25 = alloca ptr, align 8
  %this.addr.i22 = alloca ptr, align 8
  %retval.i = alloca %"class.v8::Local.299", align 8
  %this.addr.i19 = alloca ptr, align 8
  %i.addr.i = alloca i32, align 4
  %agg.tmp.i = alloca %"class.v8::Local.349", align 8
  %this.addr.i = alloca ptr, align 8
  %ref.tmp.i = alloca %"class.v8::Local.299", align 8
  %args.addr = alloca ptr, align 8
  %binding_data = alloca ptr, align 8
  %agg.tmp = alloca %"class.v8::Local", align 8
  %ref.tmp = alloca %"class.v8::Local.299", align 8
  store ptr %args, ptr %args.addr, align 8
  br label %do.body

do.body:                                          ; preds = %entry
  %0 = load ptr, ptr %args.addr, align 8
  store ptr %0, ptr %this.addr.i, align 8
  %this1.i = load ptr, ptr %this.addr.i, align 8
  store ptr %this1.i, ptr %this.addr.i101, align 8
  %this1.i102 = load ptr, ptr %this.addr.i101, align 8
  %1 = load ptr, ptr %this1.i102, align 8
  %arrayidx.i103 = getelementptr inbounds i64, ptr %1, i64 5
  store ptr %arrayidx.i103, ptr %slot.addr.i.i, align 8
  %2 = load ptr, ptr %slot.addr.i.i, align 8
  store ptr %2, ptr %slot.addr.i8.i, align 8
  %3 = load ptr, ptr %slot.addr.i8.i, align 8
  store ptr %retval.i7.i, ptr %this.addr.i.i98, align 8
  store ptr %3, ptr %location.addr.i.i99, align 8
  %this1.i.i104 = load ptr, ptr %this.addr.i.i98, align 8
  %4 = load ptr, ptr %location.addr.i.i99, align 8
  store ptr %this1.i.i104, ptr %this.addr.i.i9.i, align 8
  store ptr %4, ptr %location.addr.i.i.i, align 8
  %this1.i.i10.i = load ptr, ptr %this.addr.i.i9.i, align 8
  %5 = load ptr, ptr %location.addr.i.i.i, align 8
  store ptr %5, ptr %this1.i.i10.i, align 8
  %6 = load ptr, ptr %retval.i7.i, align 8
  store ptr %6, ptr %ref.tmp.i.i, align 8
  store ptr %retval.i.i, ptr %this.addr.i.i.i, align 8
  store ptr %ref.tmp.i.i, ptr %other.addr.i.i.i, align 8
  %this1.i.i.i = load ptr, ptr %this.addr.i.i.i, align 8
  %7 = load ptr, ptr %other.addr.i.i.i, align 8
  call void @llvm.memcpy.p0.p0.i64(ptr align 8 %this1.i.i.i, ptr align 8 %7, i64 8, i1 false)
  %8 = load ptr, ptr %retval.i.i, align 8
  store ptr %8, ptr %retval.i100, align 8
  %9 = load ptr, ptr %retval.i100, align 8
  store ptr %9, ptr %ref.tmp.i, align 8
  store ptr %ref.tmp.i, ptr %this.addr.i22, align 8
  %this1.i23 = load ptr, ptr %this.addr.i22, align 8
  store ptr %this1.i23, ptr %this.addr.i92, align 8
  %this1.i93 = load ptr, ptr %this.addr.i92, align 8
  store ptr %this1.i93, ptr %this.addr.i.i91, align 8
  %this1.i.i94 = load ptr, ptr %this.addr.i.i91, align 8
  %10 = load ptr, ptr %this1.i.i94, align 8
  store ptr %10, ptr %slot.addr.i96, align 8
  %11 = load ptr, ptr %slot.addr.i96, align 8
  store ptr %11, ptr %this.addr.i37, align 8
  %this1.i38 = load ptr, ptr %this.addr.i37, align 8
  store ptr %this1.i38, ptr %this.addr.i54, align 8
  %this1.i55 = load ptr, ptr %this.addr.i54, align 8
  store ptr %this1.i55, ptr %value.addr.i, align 8
  %12 = load ptr, ptr %value.addr.i, align 8
  %13 = load i64, ptr %12, align 8
  store i64 %13, ptr %obj.i, align 8
  %14 = load i64, ptr %obj.i, align 8
  store i64 %14, ptr %value.addr.i60, align 8
  %15 = load i64, ptr %value.addr.i60, align 8
  %and.i = and i64 %15, 3
  %cmp.i61 = icmp eq i64 %and.i, 1
  br i1 %cmp.i61, label %if.end.i58, label %if.then.i57

if.then.i57:                                      ; preds = %do.body
  store i1 false, ptr %retval.i53, align 1
  br label %_ZNK2v85Value16QuickIsUndefinedEv.exit

if.end.i58:                                       ; preds = %do.body
  %16 = load i64, ptr %obj.i, align 8
  store i64 %16, ptr %obj.addr.i.i, align 8
  %17 = load i64, ptr %obj.addr.i.i, align 8
  store i64 %17, ptr %heap_object_ptr.addr.i.i, align 8
  store i32 0, ptr %offset.addr.i.i, align 4
  %18 = load i64, ptr %heap_object_ptr.addr.i.i, align 8
  %19 = load i32, ptr %offset.addr.i.i, align 4
  store i64 %18, ptr %heap_object_ptr.addr.i.i.i, align 8
  store i32 %19, ptr %offset.addr.i.i.i, align 4
  %20 = load i64, ptr %heap_object_ptr.addr.i.i.i, align 8
  %21 = load i32, ptr %offset.addr.i.i.i, align 4
  %conv.i.i.i = sext i32 %21 to i64
  %add.i.i.i = add i64 %20, %conv.i.i.i
  %sub.i.i.i = sub i64 %add.i.i.i, 1
  store i64 %sub.i.i.i, ptr %addr.i.i.i, align 8
  %22 = load i64, ptr %addr.i.i.i, align 8
  %23 = inttoptr i64 %22 to ptr
  %24 = load i64, ptr %23, align 8
  store i64 %24, ptr %map.i.i, align 8
  %25 = load i64, ptr %map.i.i, align 8
  store i64 %25, ptr %heap_object_ptr.addr.i8.i, align 8
  store i32 12, ptr %offset.addr.i9.i, align 4
  %26 = load i64, ptr %heap_object_ptr.addr.i8.i, align 8
  %27 = load i32, ptr %offset.addr.i9.i, align 4
  %conv.i10.i = sext i32 %27 to i64
  %add.i.i = add i64 %26, %conv.i10.i
  %sub.i.i = sub i64 %add.i.i, 1
  store i64 %sub.i.i, ptr %addr.i.i, align 8
  %28 = load i64, ptr %addr.i.i, align 8
  %29 = inttoptr i64 %28 to ptr
  %30 = load i16, ptr %29, align 2
  %conv.i.i = zext i16 %30 to i32
  %cmp.i59 = icmp ne i32 %conv.i.i, 131
  br i1 %cmp.i59, label %if.then4.i, label %if.end5.i

if.then4.i:                                       ; preds = %if.end.i58
  store i1 false, ptr %retval.i53, align 1
  br label %_ZNK2v85Value16QuickIsUndefinedEv.exit

if.end5.i:                                        ; preds = %if.end.i58
  %31 = load i64, ptr %obj.i, align 8
  store i64 %31, ptr %obj.addr.i, align 8
  %32 = load i64, ptr %obj.addr.i, align 8
  store i64 %32, ptr %heap_object_ptr.addr.i, align 8
  store i32 40, ptr %offset.addr.i, align 4
  %33 = load i64, ptr %heap_object_ptr.addr.i, align 8
  %34 = load i32, ptr %offset.addr.i, align 4
  store i64 %33, ptr %heap_object_ptr.addr.i.i65, align 8
  store i32 %34, ptr %offset.addr.i.i66, align 4
  %35 = load i64, ptr %heap_object_ptr.addr.i.i65, align 8
  %36 = load i32, ptr %offset.addr.i.i66, align 4
  %conv.i.i68 = sext i32 %36 to i64
  %add.i.i69 = add i64 %35, %conv.i.i68
  %sub.i.i70 = sub i64 %add.i.i69, 1
  store i64 %sub.i.i70, ptr %addr.i.i67, align 8
  %37 = load i64, ptr %addr.i.i67, align 8
  %38 = inttoptr i64 %37 to ptr
  %39 = load i64, ptr %38, align 8
  store i64 %39, ptr %value.addr.i63, align 8
  %40 = load i64, ptr %value.addr.i63, align 8
  store i64 %40, ptr %value.addr.i71, align 8
  store i32 32, ptr %shift_bits.i, align 4
  %41 = load i64, ptr %value.addr.i71, align 8
  %42 = load i32, ptr %shift_bits.i, align 4
  %sh_prom.i = zext i32 %42 to i64
  %shr.i = ashr i64 %41, %sh_prom.i
  %conv.i72 = trunc i64 %shr.i to i32
  %cmp7.i = icmp eq i32 %conv.i72, 5
  store i1 %cmp7.i, ptr %retval.i53, align 1
  br label %_ZNK2v85Value16QuickIsUndefinedEv.exit

_ZNK2v85Value16QuickIsUndefinedEv.exit:           ; preds = %if.end5.i, %if.then4.i, %if.then.i57
  %43 = load i1, ptr %retval.i53, align 1
  %lnot.i = xor i1 %43, true
  %lnot = xor i1 %lnot.i, true
  %lnot1 = xor i1 %lnot, true
  %lnot2 = xor i1 %lnot1, true
  br i1 %lnot2, label %if.then, label %if.end

if.then:                                          ; preds = %_ZNK2v85Value16QuickIsUndefinedEv.exit
  br label %do.body3

do.body3:                                         ; preds = %if.then
  call void @_ZN4node6AssertERKNS_13AssertionInfoE(ptr noundef nonnull align 8 dereferenceable(24) @_ZZN4node2fs16NewFSReqCallbackERKN2v820FunctionCallbackInfoINS1_5ValueEEEE4args)
  call void @abort() #19
  unreachable

do.end:                                           ; No predecessors!
  br label %if.end

if.end:                                           ; preds = %do.end, %_ZNK2v85Value16QuickIsUndefinedEv.exit
  br label %do.end4

do.end4:                                          ; preds = %if.end
  %44 = load ptr, ptr %args.addr, align 8
  %call5 = call noundef ptr @_ZN4node5Realm14GetBindingDataINS_2fs11BindingDataEEEPT_RKN2v820FunctionCallbackInfoINS6_5ValueEEE(ptr noundef nonnull align 8 dereferenceable(20) %44)
  store ptr %call5, ptr %binding_data, align 8
  %call6 = call noalias noundef nonnull ptr @_Znwm(i64 noundef 648) #20
  %45 = load ptr, ptr %binding_data, align 8
  %46 = load ptr, ptr %args.addr, align 8
  store ptr %46, ptr %this.addr.i29, align 8
  %this1.i30 = load ptr, ptr %this.addr.i29, align 8
  %values_.i31 = getelementptr inbounds %"class.v8::FunctionCallbackInfo", ptr %this1.i30, i32 0, i32 1
  %47 = load ptr, ptr %values_.i31, align 8
  %add.ptr.i32 = getelementptr inbounds i64, ptr %47, i64 -1
  store ptr %add.ptr.i32, ptr %slot.addr.i108, align 8
  %48 = load ptr, ptr %slot.addr.i108, align 8
  store ptr %48, ptr %slot.addr.i116, align 8
  %49 = load ptr, ptr %slot.addr.i116, align 8
  store ptr %retval.i115, ptr %this.addr.i.i113, align 8
  store ptr %49, ptr %location.addr.i.i114, align 8
  %this1.i.i117 = load ptr, ptr %this.addr.i.i113, align 8
  %50 = load ptr, ptr %location.addr.i.i114, align 8
  store ptr %this1.i.i117, ptr %this.addr.i.i.i111, align 8
  store ptr %50, ptr %location.addr.i.i.i112, align 8
  %this1.i.i.i118 = load ptr, ptr %this.addr.i.i.i111, align 8
  %51 = load ptr, ptr %location.addr.i.i.i112, align 8
  store ptr %51, ptr %this1.i.i.i118, align 8
  %52 = load ptr, ptr %retval.i115, align 8
  store ptr %52, ptr %ref.tmp.i109, align 8
  store ptr %retval.i107, ptr %this.addr.i.i105, align 8
  store ptr %ref.tmp.i109, ptr %other.addr.i.i106, align 8
  %this1.i.i110 = load ptr, ptr %this.addr.i.i105, align 8
  %53 = load ptr, ptr %other.addr.i.i106, align 8
  call void @llvm.memcpy.p0.p0.i64(ptr align 8 %this1.i.i110, ptr align 8 %53, i64 8, i1 false)
  %54 = load ptr, ptr %retval.i107, align 8
  store ptr %54, ptr %retval.i28, align 8
  %55 = load ptr, ptr %retval.i28, align 8
  %coerce.dive = getelementptr inbounds %"class.v8::Local", ptr %agg.tmp, i32 0, i32 0
  %coerce.dive8 = getelementptr inbounds %"class.v8::LocalBase", ptr %coerce.dive, i32 0, i32 0
  %coerce.dive9 = getelementptr inbounds %"class.v8::IndirectHandleBase", ptr %coerce.dive8, i32 0, i32 0
  store ptr %55, ptr %coerce.dive9, align 8
  %56 = load ptr, ptr %args.addr, align 8
  store ptr %56, ptr %this.addr.i19, align 8
  store i32 0, ptr %i.addr.i, align 4
  %this1.i20 = load ptr, ptr %this.addr.i19, align 8
  %57 = load i32, ptr %i.addr.i, align 4
  %cmp.i = icmp slt i32 %57, 0
  br i1 %cmp.i, label %if.then.i, label %lor.lhs.false.i

lor.lhs.false.i:                                  ; preds = %do.end4
  %length_.i = getelementptr inbounds %"class.v8::FunctionCallbackInfo", ptr %this1.i20, i32 0, i32 2
  %58 = load i32, ptr %length_.i, align 8
  %59 = load i32, ptr %i.addr.i, align 4
  %cmp2.i = icmp sle i32 %58, %59
  br i1 %cmp2.i, label %if.then.i, label %if.end.i

if.then.i:                                        ; preds = %lor.lhs.false.i, %do.end4
  store ptr %this1.i20, ptr %this.addr.i40, align 8
  %this1.i41 = load ptr, ptr %this.addr.i40, align 8
  %60 = load ptr, ptr %this1.i41, align 8
  %arrayidx.i = getelementptr inbounds i64, ptr %60, i64 1
  %61 = load ptr, ptr %arrayidx.i, align 8
  store ptr %61, ptr %isolate.addr.i, align 8
  %62 = load ptr, ptr %isolate.addr.i, align 8
  store ptr %62, ptr %isolate.addr.i42, align 8
  %63 = load ptr, ptr %isolate.addr.i, align 8
  store ptr %63, ptr %isolate.addr.i43, align 8
  store i32 4, ptr %index.addr.i, align 4
  %64 = load ptr, ptr %isolate.addr.i43, align 8
  %65 = ptrtoint ptr %64 to i64
  %add.i = add i64 %65, 576
  %66 = load i32, ptr %index.addr.i, align 4
  %mul.i = mul nsw i32 %66, 8
  %conv.i = sext i32 %mul.i to i64
  %add1.i = add i64 %add.i, %conv.i
  store i64 %add1.i, ptr %addr.i, align 8
  %67 = load i64, ptr %addr.i, align 8
  %68 = inttoptr i64 %67 to ptr
  store ptr %68, ptr %slot.i, align 8
  %69 = load ptr, ptr %slot.i, align 8
  store ptr %69, ptr %slot.addr.i, align 8
  %70 = load ptr, ptr %slot.addr.i, align 8
  store ptr %70, ptr %slot.addr.i48, align 8
  %71 = load ptr, ptr %slot.addr.i48, align 8
  store ptr %retval.i47, ptr %this.addr.i51, align 8
  store ptr %71, ptr %location.addr.i, align 8
  %this1.i52 = load ptr, ptr %this.addr.i51, align 8
  %72 = load ptr, ptr %location.addr.i, align 8
  store ptr %this1.i52, ptr %this.addr.i.i, align 8
  store ptr %72, ptr %location.addr.i.i, align 8
  %this1.i.i = load ptr, ptr %this.addr.i.i, align 8
  %73 = load ptr, ptr %location.addr.i.i, align 8
  store ptr %73, ptr %this1.i.i, align 8
  %74 = load ptr, ptr %retval.i47, align 8
  store ptr %74, ptr %ref.tmp.i45, align 8
  store ptr %retval.i44, ptr %this.addr.i49, align 8
  store ptr %ref.tmp.i45, ptr %other.addr.i, align 8
  %this1.i50 = load ptr, ptr %this.addr.i49, align 8
  %75 = load ptr, ptr %other.addr.i, align 8
  call void @llvm.memcpy.p0.p0.i64(ptr align 8 %this1.i50, ptr align 8 %75, i64 8, i1 false)
  %76 = load ptr, ptr %retval.i44, align 8
  store ptr %76, ptr %retval.i34, align 8
  %77 = load ptr, ptr %retval.i34, align 8
  store ptr %77, ptr %agg.tmp.i, align 8
  %78 = load ptr, ptr %agg.tmp.i, align 8
  store ptr %78, ptr %that.i, align 8
  store ptr %retval.i, ptr %this.addr.i36, align 8
  %this3.i = load ptr, ptr %this.addr.i36, align 8
  store ptr %this3.i, ptr %this.addr.i119, align 8
  store ptr %that.i, ptr %other.addr.i120, align 8
  %this1.i121 = load ptr, ptr %this.addr.i119, align 8
  %79 = load ptr, ptr %other.addr.i120, align 8
  call void @llvm.memcpy.p0.p0.i64(ptr align 8 %this1.i121, ptr align 8 %79, i64 8, i1 false)
  br label %_ZNK2v820FunctionCallbackInfoINS_5ValueEEixEi.exit

if.end.i:                                         ; preds = %lor.lhs.false.i
  %values_.i = getelementptr inbounds %"class.v8::FunctionCallbackInfo", ptr %this1.i20, i32 0, i32 1
  %80 = load ptr, ptr %values_.i, align 8
  %81 = load i32, ptr %i.addr.i, align 4
  %idx.ext.i = sext i32 %81 to i64
  %add.ptr.i = getelementptr inbounds i64, ptr %80, i64 %idx.ext.i
  store ptr %add.ptr.i, ptr %slot.addr.i75, align 8
  %82 = load ptr, ptr %slot.addr.i75, align 8
  store ptr %82, ptr %slot.addr.i80, align 8
  %83 = load ptr, ptr %slot.addr.i80, align 8
  store ptr %retval.i79, ptr %this.addr.i83, align 8
  store ptr %83, ptr %location.addr.i84, align 8
  %this1.i85 = load ptr, ptr %this.addr.i83, align 8
  %84 = load ptr, ptr %location.addr.i84, align 8
  store ptr %this1.i85, ptr %this.addr.i.i81, align 8
  store ptr %84, ptr %location.addr.i.i82, align 8
  %this1.i.i86 = load ptr, ptr %this.addr.i.i81, align 8
  %85 = load ptr, ptr %location.addr.i.i82, align 8
  store ptr %85, ptr %this1.i.i86, align 8
  %86 = load ptr, ptr %retval.i79, align 8
  store ptr %86, ptr %ref.tmp.i76, align 8
  store ptr %retval.i74, ptr %this.addr.i.i73, align 8
  store ptr %ref.tmp.i76, ptr %other.addr.i.i, align 8
  %this1.i.i78 = load ptr, ptr %this.addr.i.i73, align 8
  %87 = load ptr, ptr %other.addr.i.i, align 8
  call void @llvm.memcpy.p0.p0.i64(ptr align 8 %this1.i.i78, ptr align 8 %87, i64 8, i1 false)
  %88 = load ptr, ptr %retval.i74, align 8
  store ptr %88, ptr %retval.i, align 8
  br label %_ZNK2v820FunctionCallbackInfoINS_5ValueEEixEi.exit

_ZNK2v820FunctionCallbackInfoINS_5ValueEEixEi.exit: ; preds = %if.end.i, %if.then.i
  %89 = load ptr, ptr %retval.i, align 8
  %coerce.dive11 = getelementptr inbounds %"class.v8::Local.299", ptr %ref.tmp, i32 0, i32 0
  %coerce.dive12 = getelementptr inbounds %"class.v8::LocalBase.300", ptr %coerce.dive11, i32 0, i32 0
  %coerce.dive13 = getelementptr inbounds %"class.v8::IndirectHandleBase", ptr %coerce.dive12, i32 0, i32 0
  store ptr %89, ptr %coerce.dive13, align 8
  store ptr %ref.tmp, ptr %this.addr.i25, align 8
  %this1.i26 = load ptr, ptr %this.addr.i25, align 8
  store ptr %this1.i26, ptr %this.addr.i88, align 8
  %this1.i89 = load ptr, ptr %this.addr.i88, align 8
  store ptr %this1.i89, ptr %this.addr.i.i87, align 8
  %this1.i.i90 = load ptr, ptr %this.addr.i.i87, align 8
  %90 = load ptr, ptr %this1.i.i90, align 8
  store ptr %90, ptr %slot.addr.i97, align 8
  %91 = load ptr, ptr %slot.addr.i97, align 8
  %call15 = call noundef zeroext i1 @_ZNK2v85Value6IsTrueEv(ptr noundef nonnull align 1 dereferenceable(1) %91)
  %coerce.dive16 = getelementptr inbounds %"class.v8::Local", ptr %agg.tmp, i32 0, i32 0
  %coerce.dive17 = getelementptr inbounds %"class.v8::LocalBase", ptr %coerce.dive16, i32 0, i32 0
  %coerce.dive18 = getelementptr inbounds %"class.v8::IndirectHandleBase", ptr %coerce.dive17, i32 0, i32 0
  %92 = load ptr, ptr %coerce.dive18, align 8
  call void @_ZN4node2fs13FSReqCallbackC2EPNS0_11BindingDataEN2v85LocalINS4_6ObjectEEEb(ptr noundef nonnull align 8 dereferenceable(648) %call6, ptr noundef %45, ptr %92, i1 noundef zeroext %call15)
  ret void
}